target datalayout = "e-m:e-p270:32:32-p271:32:32-p272:64:64-i64:64-i128:128-f80:128-n8:16:32:64-S128"
target triple = "x86_64-pc-linux-gnu"

@alpha_num = dso_local global ptr @.str, align 8
@.str.14 = private unnamed_addr constant [32 x i8] c"Unsupported dimensions count %d\00", align 1

; Function Attrs: nounwind uwtable
define internal i32 @_parse_box_range(ptr noundef %0, ptr noundef %1, ptr noundef %2, i32 noundef %3, ptr noundef %4, i32 noundef %5) #0 {
  %7 = alloca i32, align 4
  %8 = alloca ptr, align 8
  %9 = alloca ptr, align 8
  %10 = alloca ptr, align 8
  %11 = alloca i32, align 4
  %12 = alloca ptr, align 8
  %13 = alloca i32, align 4
  %14 = alloca ptr, align 8
  %15 = alloca i64, align 8
  %16 = alloca i64, align 8
  %17 = alloca i64, align 8
  %18 = alloca i64, align 8
  %19 = alloca i64, align 8
  %20 = alloca i32, align 4
  %21 = alloca i32, align 4
  %22 = alloca i32, align 4
  store ptr %0, ptr %8, align 8
  store ptr %1, ptr %9, align 8
  store ptr %2, ptr %10, align 8
  store i32 %3, ptr %11, align 4
  store ptr %4, ptr %12, align 8
  store i32 %5, ptr %13, align 4
  %23 = load i32, ptr %13, align 4
  %24 = zext i32 %23 to i64
  %25 = call ptr @llvm.stacksave.p0()
  store ptr %25, ptr %14, align 8
  %26 = alloca i32, i64 %24, align 16
  store i64 %24, ptr %15, align 8
  %27 = load i32, ptr %13, align 4
  %28 = zext i32 %27 to i64
  %29 = alloca i32, i64 %28, align 16
  store i64 %28, ptr %16, align 8
  %30 = load i32, ptr %13, align 4
  %31 = zext i32 %30 to i64
  %32 = alloca i32, i64 %31, align 16
  store i64 %31, ptr %17, align 8
  %33 = load i32, ptr %13, align 4
  %34 = add nsw i32 %33, 1
  %35 = zext i32 %34 to i64
  %36 = alloca i8, i64 %35, align 16
  store i64 %35, ptr %18, align 8
  %37 = load i32, ptr %13, align 4
  %38 = add nsw i32 %37, 1
  %39 = zext i32 %38 to i64
  %40 = alloca i8, i64 %39, align 16
  store i64 %39, ptr %19, align 8
  call void @llvm.lifetime.start.p0(i64 4, ptr %20) #13
  call void @llvm.lifetime.start.p0(i64 4, ptr %21) #13
  %41 = load i32, ptr %13, align 4
  %42 = icmp sle i32 %41, 1
  br i1 %42, label %43, label %45

43:                                               ; preds = %6
  %44 = load i32, ptr %13, align 4
  call void (ptr, ...) @fatal(ptr noundef @.str.14, i32 noundef %44) #15
  unreachable

45:                                               ; preds = %6
  %46 = load ptr, ptr %8, align 8
  %47 = load i32, ptr %13, align 4
  %48 = sext i32 %47 to i64
  %49 = getelementptr inbounds i8, ptr %46, i64 %48
  %50 = load i8, ptr %49, align 1
  %51 = sext i8 %50 to i32
  %52 = icmp ne i32 %51, 120
  br i1 %52, label %63, label %53

53:                                               ; preds = %45
  %54 = load ptr, ptr %8, align 8
  %55 = load i32, ptr %13, align 4
  %56 = mul nsw i32 %55, 2
  %57 = add nsw i32 %56, 1
  %58 = sext i32 %57 to i64
  %59 = getelementptr inbounds i8, ptr %54, i64 %58
  %60 = load i8, ptr %59, align 1
  %61 = sext i8 %60 to i32
  %62 = icmp ne i32 %61, 0
  br i1 %62, label %63, label %64

63:                                               ; preds = %53, %45
  store i32 0, ptr %7, align 4
  store i32 1, ptr %22, align 4
  br label %229

64:                                               ; preds = %53
  store i32 0, ptr %20, align 4
  br label %65

65:                                               ; preds = %188, %64
  %66 = load i32, ptr %20, align 4
  %67 = load i32, ptr %13, align 4
  %68 = icmp slt i32 %66, %67
  br i1 %68, label %69, label %191

69:                                               ; preds = %65
  %70 = load ptr, ptr %8, align 8
  %71 = load i32, ptr %20, align 4
  %72 = sext i32 %71 to i64
  %73 = getelementptr inbounds i8, ptr %70, i64 %72
  %74 = load i8, ptr %73, align 1
  %75 = sext i8 %74 to i32
  %76 = icmp sge i32 %75, 48
  br i1 %76, label %77, label %96

77:                                               ; preds = %69
  %78 = load ptr, ptr %8, align 8
  %79 = load i32, ptr %20, align 4
  %80 = sext i32 %79 to i64
  %81 = getelementptr inbounds i8, ptr %78, i64 %80
  %82 = load i8, ptr %81, align 1
  %83 = sext i8 %82 to i32
  %84 = icmp sle i32 %83, 57
  br i1 %84, label %85, label %96

85:                                               ; preds = %77
  %86 = load ptr, ptr %8, align 8
  %87 = load i32, ptr %20, align 4
  %88 = sext i32 %87 to i64
  %89 = getelementptr inbounds i8, ptr %86, i64 %88
  %90 = load i8, ptr %89, align 1
  %91 = sext i8 %90 to i32
  %92 = sub nsw i32 %91, 48
  %93 = load i32, ptr %20, align 4
  %94 = sext i32 %93 to i64
  %95 = getelementptr inbounds i32, ptr %26, i64 %94
  store i32 %92, ptr %95, align 4
  br label %126

96:                                               ; preds = %77, %69
  %97 = load ptr, ptr %8, align 8
  %98 = load i32, ptr %20, align 4
  %99 = sext i32 %98 to i64
  %100 = getelementptr inbounds i8, ptr %97, i64 %99
  %101 = load i8, ptr %100, align 1
  %102 = sext i8 %101 to i32
  %103 = icmp sge i32 %102, 65
  br i1 %103, label %104, label %124

104:                                              ; preds = %96
  %105 = load ptr, ptr %8, align 8
  %106 = load i32, ptr %20, align 4
  %107 = sext i32 %106 to i64
  %108 = getelementptr inbounds i8, ptr %105, i64 %107
  %109 = load i8, ptr %108, align 1
  %110 = sext i8 %109 to i32
  %111 = icmp sle i32 %110, 90
  br i1 %111, label %112, label %124

112:                                              ; preds = %104
  %113 = load ptr, ptr %8, align 8
  %114 = load i32, ptr %20, align 4
  %115 = sext i32 %114 to i64
  %116 = getelementptr inbounds i8, ptr %113, i64 %115
  %117 = load i8, ptr %116, align 1
  %118 = sext i8 %117 to i32
  %119 = sub nsw i32 %118, 65
  %120 = add nsw i32 %119, 10
  %121 = load i32, ptr %20, align 4
  %122 = sext i32 %121 to i64
  %123 = getelementptr inbounds i32, ptr %26, i64 %122
  store i32 %120, ptr %123, align 4
  br label %125

124:                                              ; preds = %104, %96
  store i32 0, ptr %7, align 4
  store i32 1, ptr %22, align 4
  br label %229

125:                                              ; preds = %112
  br label %126

126:                                              ; preds = %125, %85
  %127 = load i32, ptr %20, align 4
  %128 = load i32, ptr %13, align 4
  %129 = add nsw i32 %127, %128
  %130 = add nsw i32 %129, 1
  store i32 %130, ptr %21, align 4
  %131 = load ptr, ptr %8, align 8
  %132 = load i32, ptr %21, align 4
  %133 = sext i32 %132 to i64
  %134 = getelementptr inbounds i8, ptr %131, i64 %133
  %135 = load i8, ptr %134, align 1
  %136 = sext i8 %135 to i32
  %137 = icmp sge i32 %136, 48
  br i1 %137, label %138, label %157

138:                                              ; preds = %126
  %139 = load ptr, ptr %8, align 8
  %140 = load i32, ptr %21, align 4
  %141 = sext i32 %140 to i64
  %142 = getelementptr inbounds i8, ptr %139, i64 %141
  %143 = load i8, ptr %142, align 1
  %144 = sext i8 %143 to i32
  %145 = icmp sle i32 %144, 57
  br i1 %145, label %146, label %157

146:                                              ; preds = %138
  %147 = load ptr, ptr %8, align 8
  %148 = load i32, ptr %21, align 4
  %149 = sext i32 %148 to i64
  %150 = getelementptr inbounds i8, ptr %147, i64 %149
  %151 = load i8, ptr %150, align 1
  %152 = sext i8 %151 to i32
  %153 = sub nsw i32 %152, 48
  %154 = load i32, ptr %20, align 4
  %155 = sext i32 %154 to i64
  %156 = getelementptr inbounds i32, ptr %29, i64 %155
  store i32 %153, ptr %156, align 4
  br label %187

157:                                              ; preds = %138, %126
  %158 = load ptr, ptr %8, align 8
  %159 = load i32, ptr %21, align 4
  %160 = sext i32 %159 to i64
  %161 = getelementptr inbounds i8, ptr %158, i64 %160
  %162 = load i8, ptr %161, align 1
  %163 = sext i8 %162 to i32
  %164 = icmp sge i32 %163, 65
  br i1 %164, label %165, label %185

165:                                              ; preds = %157
  %166 = load ptr, ptr %8, align 8
  %167 = load i32, ptr %21, align 4
  %168 = sext i32 %167 to i64
  %169 = getelementptr inbounds i8, ptr %166, i64 %168
  %170 = load i8, ptr %169, align 1
  %171 = sext i8 %170 to i32
  %172 = icmp sle i32 %171, 90
  br i1 %172, label %173, label %185

173:                                              ; preds = %165
  %174 = load ptr, ptr %8, align 8
  %175 = load i32, ptr %21, align 4
  %176 = sext i32 %175 to i64
  %177 = getelementptr inbounds i8, ptr %174, i64 %176
  %178 = load i8, ptr %177, align 1
  %179 = sext i8 %178 to i32
  %180 = sub nsw i32 %179, 65
  %181 = add nsw i32 %180, 10
  %182 = load i32, ptr %20, align 4
  %183 = sext i32 %182 to i64
  %184 = getelementptr inbounds i32, ptr %29, i64 %183
  store i32 %181, ptr %184, align 4
  br label %186

185:                                              ; preds = %165, %157
  store i32 0, ptr %7, align 4
  store i32 1, ptr %22, align 4
  br label %229

186:                                              ; preds = %173
  br label %187

187:                                              ; preds = %186, %146
  br label %188

188:                                              ; preds = %187
  %189 = load i32, ptr %20, align 4
  %190 = add nsw i32 %189, 1
  store i32 %190, ptr %20, align 4
  br label %65, !llvm.loop !72

191:                                              ; preds = %65
  call void @llvm.memset.p0.i64(ptr align 16 %36, i8 0, i64 %35, i1 false)
  call void @llvm.memset.p0.i64(ptr align 16 %40, i8 0, i64 %39, i1 false)
  store i32 0, ptr %20, align 4
  br label %192

192:                                              ; preds = %219, %191
  %193 = load i32, ptr %20, align 4
  %194 = load i32, ptr %13, align 4
  %195 = icmp slt i32 %193, %194
  br i1 %195, label %196, label %222

196:                                              ; preds = %192
  %197 = load ptr, ptr @alpha_num, align 8
  %198 = load i32, ptr %20, align 4
  %199 = sext i32 %198 to i64
  %200 = getelementptr inbounds i32, ptr %26, i64 %199
  %201 = load i32, ptr %200, align 4
  %202 = sext i32 %201 to i64
  %203 = getelementptr inbounds i8, ptr %197, i64 %202
  %204 = load i8, ptr %203, align 1
  %205 = load i32, ptr %20, align 4
  %206 = sext i32 %205 to i64
  %207 = getelementptr inbounds i8, ptr %36, i64 %206
  store i8 %204, ptr %207, align 1
  %208 = load ptr, ptr @alpha_num, align 8
  %209 = load i32, ptr %20, align 4
  %210 = sext i32 %209 to i64
  %211 = getelementptr inbounds i32, ptr %29, i64 %210
  %212 = load i32, ptr %211, align 4
  %213 = sext i32 %212 to i64
  %214 = getelementptr inbounds i8, ptr %208, i64 %213
  %215 = load i8, ptr %214, align 1
  %216 = load i32, ptr %20, align 4
  %217 = sext i32 %216 to i64
  %218 = getelementptr inbounds i8, ptr %40, i64 %217
  store i8 %215, ptr %218, align 1
  br label %219

219:                                              ; preds = %196
  %220 = load i32, ptr %20, align 4
  %221 = add nsw i32 %220, 1
  store i32 %221, ptr %20, align 4
  br label %192, !llvm.loop !73

222:                                              ; preds = %192
  %223 = load ptr, ptr %9, align 8
  %224 = load ptr, ptr %10, align 8
  %225 = load i32, ptr %11, align 4
  %226 = load ptr, ptr %12, align 8
  %227 = load i32, ptr %13, align 4
  %228 = call i32 @_add_box_ranges(i32 noundef 0, i32 noundef 0, ptr noundef %26, ptr noundef %29, ptr noundef %32, ptr noundef %223, ptr noundef %224, i32 noundef %225, ptr noundef %226, i32 noundef %227)
  store i32 %228, ptr %7, align 4
  store i32 1, ptr %22, align 4
  br label %229

229:                                              ; preds = %222, %185, %124, %63
  call void @llvm.lifetime.end.p0(i64 4, ptr %21) #13
  call void @llvm.lifetime.end.p0(i64 4, ptr %20) #13
  %230 = load ptr, ptr %14, align 8
  call void @llvm.stackrestore.p0(ptr %230)
  %231 = load i32, ptr %7, align 4
  ret i32 %231
}