; Function Attrs: nounwind uwtable
define internal fastcc range(i32 0, 2) i32 @_parse_box_range(ptr noundef nonnull readonly captures(none) %0, ptr noundef nonnull %1, ptr noundef nonnull captures(none) %2, ptr noundef nonnull captures(none) %3, i32 noundef range(i32 2, -2147483648) %4) unnamed_addr #0 {
  %6 = zext nneg i32 %4 to i64
  %7 = alloca i32, i64 %6, align 16
  %8 = alloca i32, i64 %6, align 16
  %9 = alloca i32, i64 %6, align 16
  %10 = getelementptr inbounds nuw i8, ptr %0, i64 %6
  %11 = load i8, ptr %10, align 1
  %.not = icmp eq i8 %11, 120
  br i1 %.not, label %12, label %.loopexit

12:                                               ; preds = %5
  %13 = shl nuw nsw i32 %4, 1
  %14 = or disjoint i32 %13, 1
  %15 = zext nneg i32 %14 to i64
  %16 = getelementptr inbounds nuw i8, ptr %0, i64 %15
  %17 = load i8, ptr %16, align 1
  %.not64 = icmp eq i8 %17, 0
  br i1 %.not64, label %.preheader70, label %.loopexit

.preheader70:                                     ; preds = %12
  %invariant.gep = getelementptr inbounds nuw i8, ptr %0, i64 1
  %invariant.gep73 = getelementptr inbounds nuw i8, ptr %invariant.gep, i64 %6
  br label %18

18:                                               ; preds = %.preheader70, %40
  %indvars.iv = phi i64 [ 0, %.preheader70 ], [ %indvars.iv.next, %40 ]
  %19 = getelementptr inbounds nuw i8, ptr %0, i64 %indvars.iv
  %20 = load i8, ptr %19, align 1
  %21 = add i8 %20, -48
  %or.cond = icmp ult i8 %21, 10
  br i1 %or.cond, label %22, label %24

22:                                               ; preds = %18
  %23 = zext nneg i8 %21 to i32
  br label %29

24:                                               ; preds = %18
  %25 = add i8 %20, -65
  %or.cond67 = icmp ult i8 %25, 26
  br i1 %or.cond67, label %26, label %.loopexit

26:                                               ; preds = %24
  %27 = zext nneg i8 %20 to i32
  %28 = add nsw i32 %27, -55
  br label %29

29:                                               ; preds = %26, %22
  %.sink = phi i32 [ %28, %26 ], [ %23, %22 ]
  %30 = getelementptr inbounds nuw i32, ptr %7, i64 %indvars.iv
  store i32 %.sink, ptr %30, align 4
  %gep74 = getelementptr inbounds nuw i8, ptr %invariant.gep73, i64 %indvars.iv
  %31 = load i8, ptr %gep74, align 1
  %32 = add i8 %31, -48
  %or.cond68 = icmp ult i8 %32, 10
  br i1 %or.cond68, label %33, label %35

33:                                               ; preds = %29
  %34 = zext nneg i8 %32 to i32
  br label %40

35:                                               ; preds = %29
  %36 = add i8 %31, -65
  %or.cond69 = icmp ult i8 %36, 26
  br i1 %or.cond69, label %37, label %.loopexit

37:                                               ; preds = %35
  %38 = zext nneg i8 %31 to i32
  %39 = add nsw i32 %38, -55
  br label %40

40:                                               ; preds = %33, %37
  %.sink76 = phi i32 [ %34, %33 ], [ %39, %37 ]
  %41 = getelementptr inbounds nuw i32, ptr %8, i64 %indvars.iv
  store i32 %.sink76, ptr %41, align 4
  %indvars.iv.next = add nuw nsw i64 %indvars.iv, 1
  %exitcond.not = icmp eq i64 %indvars.iv.next, %6
  br i1 %exitcond.not, label %.preheader.preheader, label %18, !llvm.loop !75

.preheader.preheader:                             ; preds = %40
  %42 = call fastcc i32 @_add_box_ranges(i32 noundef 0, i32 noundef 0, ptr noundef %7, ptr noundef %8, ptr noundef %9, ptr noundef %1, ptr noundef %2, ptr noundef %3, i32 noundef %4)
  br label %.loopexit

.loopexit:                                        ; preds = %35, %24, %5, %12, %.preheader.preheader
  %.0 = phi i32 [ %42, %.preheader.preheader ], [ 0, %12 ], [ 0, %5 ], [ 0, %24 ], [ 0, %35 ]
  ret i32 %.0
}